; ModuleID = '27/70.c'
source_filename = "27/70.c"
target datalayout = "e-m:e-p270:32:32-p271:32:32-p272:64:64-i64:64-f80:128-n8:16:32:64-S128"
target triple = "x86_64-pc-linux-gnu"

@.str = private unnamed_addr constant [4 x i8] c"%d\0A\00", align 1
@.str.1 = private unnamed_addr constant [12 x i8] c"%lf %lf %lf\00", align 1
@.str.2 = private unnamed_addr constant [19 x i8] c"x1=%.5lf;x2=%.5lf\0A\00", align 1
@.str.3 = private unnamed_addr constant [13 x i8] c"x1=x2=%.5lf\0A\00", align 1
@.str.4 = private unnamed_addr constant [33 x i8] c"x1=%.5lf+%.5lfi;x2=%.5lf-%.5lfi\0A\00", align 1

; Function Attrs: noinline nounwind uwtable
define dso_local void @main() #0 {
  %1 = alloca i32, align 4
  %2 = alloca double, align 8
  %3 = alloca double, align 8
  %4 = alloca double, align 8
  %5 = alloca double, align 8
  %6 = alloca double, align 8
  %7 = alloca double, align 8
  %8 = alloca double, align 8
  %9 = call i32 (i8*, ...) @__isoc99_scanf(i8* getelementptr inbounds ([4 x i8], [4 x i8]* @.str, i64 0, i64 0), i32* %1)
  br label %10

10:                                               ; preds = %136, %0
  %11 = load i32, i32* %1, align 4
  %12 = icmp ne i32 %11, 0
  br i1 %12, label %13, label %139

13:                                               ; preds = %10
  %14 = call i32 (i8*, ...) @__isoc99_scanf(i8* getelementptr inbounds ([12 x i8], [12 x i8]* @.str.1, i64 0, i64 0), double* %2, double* %3, double* %4)
  %15 = load double, double* %3, align 8
  %16 = load double, double* %3, align 8
  %17 = fmul double %15, %16
  %18 = load double, double* %2, align 8
  %19 = fmul double 4.000000e+00, %18
  %20 = load double, double* %4, align 8
  %21 = fmul double %19, %20
  %22 = fsub double %17, %21
  %23 = fcmp ogt double %22, 0.000000e+00
  br i1 %23, label %24, label %58

24:                                               ; preds = %13
  %25 = load double, double* %3, align 8
  %26 = fneg double %25
  %27 = load double, double* %3, align 8
  %28 = load double, double* %3, align 8
  %29 = fmul double %27, %28
  %30 = load double, double* %2, align 8
  %31 = fmul double 4.000000e+00, %30
  %32 = load double, double* %4, align 8
  %33 = fmul double %31, %32
  %34 = fsub double %29, %33
  %35 = call double @sqrt(double %34) #3
  %36 = fadd double %26, %35
  %37 = load double, double* %2, align 8
  %38 = fmul double 2.000000e+00, %37
  %39 = fdiv double %36, %38
  store double %39, double* %5, align 8
  %40 = load double, double* %3, align 8
  %41 = fneg double %40
  %42 = load double, double* %3, align 8
  %43 = load double, double* %3, align 8
  %44 = fmul double %42, %43
  %45 = load double, double* %2, align 8
  %46 = fmul double 4.000000e+00, %45
  %47 = load double, double* %4, align 8
  %48 = fmul double %46, %47
  %49 = fsub double %44, %48
  %50 = call double @sqrt(double %49) #3
  %51 = fsub double %41, %50
  %52 = load double, double* %2, align 8
  %53 = fmul double 2.000000e+00, %52
  %54 = fdiv double %51, %53
  store double %54, double* %6, align 8
  %55 = load double, double* %5, align 8
  %56 = load double, double* %6, align 8
  %57 = call i32 (i8*, ...) @printf(i8* getelementptr inbounds ([19 x i8], [19 x i8]* @.str.2, i64 0, i64 0), double %55, double %56)
  br label %136

58:                                               ; preds = %13
  %59 = load double, double* %3, align 8
  %60 = load double, double* %3, align 8
  %61 = fmul double %59, %60
  %62 = load double, double* %2, align 8
  %63 = fmul double 4.000000e+00, %62
  %64 = load double, double* %4, align 8
  %65 = fmul double %63, %64
  %66 = fsub double %61, %65
  %67 = fcmp oeq double %66, 0.000000e+00
  br i1 %67, label %68, label %101

68:                                               ; preds = %58
  %69 = load double, double* %3, align 8
  %70 = fneg double %69
  %71 = load double, double* %3, align 8
  %72 = load double, double* %3, align 8
  %73 = fmul double %71, %72
  %74 = load double, double* %2, align 8
  %75 = fmul double 4.000000e+00, %74
  %76 = load double, double* %4, align 8
  %77 = fmul double %75, %76
  %78 = fsub double %73, %77
  %79 = call double @sqrt(double %78) #3
  %80 = fadd double %70, %79
  %81 = load double, double* %2, align 8
  %82 = fmul double 2.000000e+00, %81
  %83 = fdiv double %80, %82
  store double %83, double* %5, align 8
  %84 = load double, double* %3, align 8
  %85 = fneg double %84
  %86 = load double, double* %3, align 8
  %87 = load double, double* %3, align 8
  %88 = fmul double %86, %87
  %89 = load double, double* %2, align 8
  %90 = fmul double 4.000000e+00, %89
  %91 = load double, double* %4, align 8
  %92 = fmul double %90, %91
  %93 = fsub double %88, %92
  %94 = call double @sqrt(double %93) #3
  %95 = fsub double %85, %94
  %96 = load double, double* %2, align 8
  %97 = fmul double 2.000000e+00, %96
  %98 = fdiv double %95, %97
  store double %98, double* %6, align 8
  %99 = load double, double* %5, align 8
  %100 = call i32 (i8*, ...) @printf(i8* getelementptr inbounds ([13 x i8], [13 x i8]* @.str.3, i64 0, i64 0), double %99)
  br label %135

101:                                              ; preds = %58
  %102 = load double, double* %3, align 8
  %103 = load double, double* %3, align 8
  %104 = fmul double %102, %103
  %105 = load double, double* %2, align 8
  %106 = fmul double 4.000000e+00, %105
  %107 = load double, double* %4, align 8
  %108 = fmul double %106, %107
  %109 = fsub double %104, %108
  %110 = fcmp olt double %109, 0.000000e+00
  br i1 %110, label %111, label %134

111:                                              ; preds = %101
  %112 = load double, double* %3, align 8
  %113 = fneg double %112
  %114 = load double, double* %2, align 8
  %115 = fmul double 2.000000e+00, %114
  %116 = fdiv double %113, %115
  store double %116, double* %7, align 8
  %117 = load double, double* %2, align 8
  %118 = fmul double 4.000000e+00, %117
  %119 = load double, double* %4, align 8
  %120 = fmul double %118, %119
  %121 = load double, double* %3, align 8
  %122 = load double, double* %3, align 8
  %123 = fmul double %121, %122
  %124 = fsub double %120, %123
  %125 = call double @sqrt(double %124) #3
  %126 = load double, double* %2, align 8
  %127 = fmul double 2.000000e+00, %126
  %128 = fdiv double %125, %127
  store double %128, double* %8, align 8
  %129 = load double, double* %7, align 8
  %130 = load double, double* %8, align 8
  %131 = load double, double* %7, align 8
  %132 = load double, double* %8, align 8
  %133 = call i32 (i8*, ...) @printf(i8* getelementptr inbounds ([33 x i8], [33 x i8]* @.str.4, i64 0, i64 0), double %129, double %130, double %131, double %132)
  br label %134

134:                                              ; preds = %111, %101
  br label %135

135:                                              ; preds = %134, %68
  br label %136

136:                                              ; preds = %135, %24
  %137 = load i32, i32* %1, align 4
  %138 = sub nsw i32 %137, 1
  store i32 %138, i32* %1, align 4
  br label %10

139:                                              ; preds = %10
  ret void
}

declare dso_local i32 @__isoc99_scanf(i8*, ...) #1

; Function Attrs: nounwind
declare dso_local double @sqrt(double) #2

declare dso_local i32 @printf(i8*, ...) #1


!llvm.module.flags = !{!0}
!llvm.ident = !{!1}

!0 = !{i32 1, !"wchar_size", i32 4}
!1 = !{!"clang version 10.0.0-4ubuntu1 "}
